; Function Attrs: mustprogress nounwind uwtable
define internal void @_ZN9grpc_core12_GLOBAL__N_120TCPConnectHandshakerD0Ev(ptr noundef nonnull align 16 dereferenceable(280) initializes((0, 8)) %0) unnamed_addr #16 align 2 personality ptr @__gxx_personality_v0 {
  store ptr getelementptr inbounds nuw inrange(-16, 40) (i8, ptr @_ZTVN9grpc_core12_GLOBAL__N_120TCPConnectHandshakerE, i64 16), ptr %0, align 16, !tbaa !6
  %2 = getelementptr inbounds nuw i8, ptr %0, i64 32
  %3 = load ptr, ptr %2, align 16, !tbaa !50
  %.not.i = icmp eq ptr %3, null
  br i1 %.not.i, label %5, label %4

4:                                                ; preds = %1
  invoke void @_Z21grpc_endpoint_destroyP13grpc_endpoint(ptr noundef nonnull %3)
          to label %5 unwind label %8

5:                                                ; preds = %4, %1
  %6 = getelementptr inbounds nuw i8, ptr %0, i64 80
  %7 = load ptr, ptr %6, align 16, !tbaa !53
  invoke void @_Z24grpc_pollset_set_destroyP16grpc_pollset_set(ptr noundef %7)
          to label %_ZN9grpc_core12_GLOBAL__N_120TCPConnectHandshakerD2Ev.exit unwind label %8

8:                                                ; preds = %5, %4
  %9 = landingpad { ptr, i32 }
          catch ptr null
  %10 = extractvalue { ptr, i32 } %9, 0
  tail call void @__clang_call_terminate(ptr %10) #28
  unreachable

_ZN9grpc_core12_GLOBAL__N_120TCPConnectHandshakerD2Ev.exit: ; preds = %5
  %11 = getelementptr inbounds nuw i8, ptr %0, i64 48
  %12 = getelementptr inbounds nuw i8, ptr %0, i64 64
  %13 = load ptr, ptr %12, align 16, !tbaa !51
  tail call void %13(i1 noundef zeroext true, ptr noundef nonnull align 16 dereferenceable(32) %11, ptr noundef nonnull align 16 dereferenceable(32) %11) #25
  tail call void @_ZdlPvm(ptr noundef nonnull %0, i64 noundef 288) #27
  ret void
}